; Function Attrs: mustprogress nofree norecurse nosync nounwind willreturn memory(argmem: read) uwtable
define noundef nonnull align 8 dereferenceable(32) ptr @_ZNK7rocksdb18ImmutableDBOptions9GetWalDirB5cxx11Ev(ptr noundef nonnull readonly align 8 dereferenceable(600) %0) local_unnamed_addr #11 align 2 {
  %2 = getelementptr inbounds nuw i8, ptr %0, i64 160
  %3 = getelementptr inbounds nuw i8, ptr %0, i64 168
  %4 = load i64, ptr %3, align 8, !tbaa !12
  %5 = icmp eq i64 %4, 0
  %6 = getelementptr inbounds nuw i8, ptr %0, i64 104
  %7 = load ptr, ptr %6, align 8
  %.0 = select i1 %5, ptr %7, ptr %2
  ret ptr %.0
}